(lp0
cnumpy.core.multiarray
_reconstruct
p1
(cnumpy
ndarray
p2
(I0
tp3
S'b'
p4
tp5
Rp6
(I1
(I2
I2
tp7
cnumpy
dtype
p8
(S'f4'
p9
I0
I1
tp10
Rp11
(I3
S'<'
p12
NNNI-1
I-1
I0
tp13
bI00
S'\x18wl\xbf\xd0e\xc5\xbe.\xa4m?#\x91\x8d>'
p14
tp15
bag1
(g2
(I0
tp16
g4
tp17
Rp18
(I1
(I2
I4
tp19
g11
I00
S'\xe3\xb3\xe3\xbe3\x8c\xd0>O$\x19?N\xbf\x89?v$M?\x7fW\xcd?yf\xfe?B\x110>'
p20
tp21
ba.